
monitor.elf:     file format elf32-m68k


Disassembly of section seg0:

80002054 <__bss_start-0x53b>:
80002054:	00ef           	.short 0x00ef
80002056:	ffaa 0000 0008 	cp1stl %d0,%a2@(8),#1,#0
8000205c:	4ff9 00ef ffaa 	lea efffaa <STACK_START>,%sp
80002062:	4eb8 040a      	jsr 40a <initDuart>
80002066:	41f8 050d      	lea 50d <msgRamCheck>,%a0
8000206a:	6100 0366      	bsrw 800023d2 <IVR+0x7f1023b9>
8000206e:	45f9 00e0 0000 	lea e00000 <RAMBASE>,%a2
80002074:	14bc 00aa      	moveb #-86,%a2@
80002078:	0c12 00aa      	cmpib #-86,%a2@
8000207c:	661c           	bnes 8000209a <IVR+0x7f102081>
8000207e:	14bc 0055      	moveb #85,%a2@
80002082:	0c12 0055      	cmpib #85,%a2@
80002086:	6612           	bnes 8000209a <IVR+0x7f102081>
80002088:	14bc 0000      	moveb #0,%a2@
8000208c:	4a1a           	tstb %a2@+
8000208e:	660a           	bnes 8000209a <IVR+0x7f102081>
80002090:	b5fc 00f0 0000 	cmpal #15728640,%a2
80002096:	6ddc           	blts 80002074 <IVR+0x7f10205b>
80002098:	6014           	bras 800020ae <IVR+0x7f102095>
8000209a:	41f8 051f      	lea 51f <msgRamFail>,%a0
8000209e:	6100 0332      	bsrw 800023d2 <IVR+0x7f1023b9>
800020a2:	200a           	movel %a2,%d0
800020a4:	6100 0348      	bsrw 800023ee <IVR+0x7f1023d5>
800020a8:	6100 0324      	bsrw 800023ce <IVR+0x7f1023b5>
800020ac:	60fe           	bras 800020ac <IVR+0x7f102093>
800020ae:	41f8 052b      	lea 52b <msgRamPass>,%a0
800020b2:	6100 031e      	bsrw 800023d2 <IVR+0x7f1023b9>
800020b6:	41f8 044c      	lea 44c <msgBanner>,%a0
800020ba:	6100 0316      	bsrw 800023d2 <IVR+0x7f1023b9>
800020be:	41f8 048f      	lea 48f <msgHelp>,%a0
800020c2:	6100 030e      	bsrw 800023d2 <IVR+0x7f1023b9>
800020c6:	41f8 04d6      	lea 4d6 <msgPrompt>,%a0
800020ca:	6100 0306      	bsrw 800023d2 <IVR+0x7f1023b9>
800020ce:	6100 0270      	bsrw 80002340 <IVR+0x7f102327>
800020d2:	6104           	bsrs 800020d8 <IVR+0x7f1020bf>
800020d4:	6120           	bsrs 800020f6 <IVR+0x7f1020dd>
800020d6:	60ee           	bras 800020c6 <IVR+0x7f1020ad>
800020d8:	41f9 00ef ffaa 	lea efffaa <STACK_START>,%a0
800020de:	1010           	moveb %a0@,%d0
800020e0:	b03c 0061      	cmpb #97,%d0
800020e4:	6d0a           	blts 800020f0 <IVR+0x7f1020d7>
800020e6:	b03c 007a      	cmpb #122,%d0
800020ea:	6e04           	bgts 800020f0 <IVR+0x7f1020d7>
800020ec:	903c 0020      	subb #32,%d0
800020f0:	10c0           	moveb %d0,%a0@+
800020f2:	66ea           	bnes 800020de <IVR+0x7f1020c5>
800020f4:	4e75           	rts
800020f6:	48e7 0030      	moveml %a2-%a3,%sp@-
800020fa:	41f9 00ef ffaa 	lea efffaa <STACK_START>,%a0
80002100:	1018           	moveb %a0@+,%d0
80002102:	b03c 0020      	cmpb #32,%d0
80002106:	67f8           	beqs 80002100 <IVR+0x7f1020e7>
80002108:	b03c 0045      	cmpb #69,%d0
8000210c:	672a           	beqs 80002138 <IVR+0x7f10211f>
8000210e:	b03c 0044      	cmpb #68,%d0
80002112:	6700 00a8      	beqw 800021bc <IVR+0x7f1021a3>
80002116:	b03c 0052      	cmpb #82,%d0
8000211a:	6700 00fa      	beqw 80002216 <IVR+0x7f1021fd>
8000211e:	b03c 0048      	cmpb #72,%d0
80002122:	6700 0100      	beqw 80002224 <IVR+0x7f10220b>
80002126:	4a00           	tstb %d0
80002128:	6708           	beqs 80002132 <IVR+0x7f102119>
8000212a:	41f8 04d9      	lea 4d9 <msgInvalidCommand>,%a0
8000212e:	6100 02a2      	bsrw 800023d2 <IVR+0x7f1023b9>
80002132:	4cdf 0c00      	moveml %sp@+,%a2-%a3
80002136:	4e75           	rts
80002138:	6100 010e      	bsrw 80002248 <IVR+0x7f10222f>
8000213c:	4a01           	tstb %d1
8000213e:	6600 00f0      	bnew 80002230 <IVR+0x7f102217>
80002142:	2640           	moveal %d0,%a3
80002144:	1018           	moveb %a0@+,%d0
80002146:	b03c 0020      	cmpb #32,%d0
8000214a:	67f8           	beqs 80002144 <IVR+0x7f10212b>
8000214c:	b03c 002d      	cmpb #45,%d0
80002150:	6716           	beqs 80002168 <IVR+0x7f10214f>
80002152:	b03c 002b      	cmpb #43,%d0
80002156:	6722           	beqs 8000217a <IVR+0x7f102161>
80002158:	b03c 003b      	cmpb #59,%d0
8000215c:	672e           	beqs 8000218c <IVR+0x7f102173>
8000215e:	b03c 002e      	cmpb #46,%d0
80002162:	6712           	beqs 80002176 <IVR+0x7f10215d>
80002164:	7001           	moveq #1,%d0
80002166:	601c           	bras 80002184 <IVR+0x7f10216b>
80002168:	6100 00de      	bsrw 80002248 <IVR+0x7f10222f>
8000216c:	4a01           	tstb %d1
8000216e:	6600 00c0      	bnew 80002230 <IVR+0x7f102217>
80002172:	908b           	subl %a3,%d0
80002174:	600e           	bras 80002184 <IVR+0x7f10216b>
80002176:	7010           	moveq #16,%d0
80002178:	600a           	bras 80002184 <IVR+0x7f10216b>
8000217a:	6100 00cc      	bsrw 80002248 <IVR+0x7f10222f>
8000217e:	4a01           	tstb %d1
80002180:	6600 00ae      	bnew 80002230 <IVR+0x7f102217>
80002184:	204b           	moveal %a3,%a0
80002186:	6100 0120      	bsrw 800022a8 <IVR+0x7f10228f>
8000218a:	60a6           	bras 80002132 <IVR+0x7f102119>
8000218c:	204b           	moveal %a3,%a0
8000218e:	7010           	moveq #16,%d0
80002190:	6100 0116      	bsrw 800022a8 <IVR+0x7f10228f>
80002194:	47eb 0010      	lea %a3@(16),%a3
80002198:	6100 02b2      	bsrw 8000244c <IVR+0x7f102433>
8000219c:	b03c 000d      	cmpb #13,%d0
800021a0:	67ea           	beqs 8000218c <IVR+0x7f102173>
800021a2:	b03c 0020      	cmpb #32,%d0
800021a6:	6702           	beqs 800021aa <IVR+0x7f102191>
800021a8:	6088           	bras 80002132 <IVR+0x7f102119>
800021aa:	204b           	moveal %a3,%a0
800021ac:	203c 0000 0100 	movel #256,%d0
800021b2:	6100 00f4      	bsrw 800022a8 <IVR+0x7f10228f>
800021b6:	47eb 0100      	lea %a3@(256),%a3
800021ba:	60dc           	bras 80002198 <IVR+0x7f10217f>
800021bc:	1010           	moveb %a0@,%d0
800021be:	b03c 003a      	cmpb #58,%d0
800021c2:	6726           	beqs 800021ea <IVR+0x7f1021d1>
800021c4:	6100 0082      	bsrw 80002248 <IVR+0x7f10222f>
800021c8:	4a01           	tstb %d1
800021ca:	6664           	bnes 80002230 <IVR+0x7f102217>
800021cc:	2640           	moveal %d0,%a3
800021ce:	1010           	moveb %a0@,%d0
800021d0:	b03c 003b      	cmpb #59,%d0
800021d4:	671e           	beqs 800021f4 <IVR+0x7f1021db>
800021d6:	4a40           	tstw %d0
800021d8:	6732           	beqs 8000220c <IVR+0x7f1021f3>
800021da:	616c           	bsrs 80002248 <IVR+0x7f10222f>
800021dc:	4a01           	tstb %d1
800021de:	665c           	bnes 8000223c <IVR+0x7f102223>
800021e0:	b07c 00ff      	cmpw #255,%d0
800021e4:	6e56           	bgts 8000223c <IVR+0x7f102223>
800021e6:	16c0           	moveb %d0,%a3@+
800021e8:	60e4           	bras 800021ce <IVR+0x7f1021b5>
800021ea:	2679 00ef fffc 	moveal effffc <varCurAddr>,%a3
800021f0:	5288           	addql #1,%a0
800021f2:	60da           	bras 800021ce <IVR+0x7f1021b5>
800021f4:	41f8 04d3      	lea 4d3 <msgDepositPrompt>,%a0
800021f8:	6100 01d8      	bsrw 800023d2 <IVR+0x7f1023b9>
800021fc:	6100 0142      	bsrw 80002340 <IVR+0x7f102327>
80002200:	6100 fed6      	bsrw 800020d8 <IVR+0x7f1020bf>
80002204:	41f9 00ef ffaa 	lea efffaa <STACK_START>,%a0
8000220a:	60c2           	bras 800021ce <IVR+0x7f1021b5>
8000220c:	23cb 00ef fffc 	movel %a3,effffc <varCurAddr>
80002212:	6000 ff1e      	braw 80002132 <IVR+0x7f102119>
80002216:	6130           	bsrs 80002248 <IVR+0x7f10222f>
80002218:	4a01           	tstb %d1
8000221a:	6614           	bnes 80002230 <IVR+0x7f102217>
8000221c:	2040           	moveal %d0,%a0
8000221e:	4e90           	jsr %a0@
80002220:	4eb8 0062      	jsr 62 <monitorStart>
80002224:	41f8 048f      	lea 48f <msgHelp>,%a0
80002228:	6100 01a8      	bsrw 800023d2 <IVR+0x7f1023b9>
8000222c:	6000 ff04      	braw 80002132 <IVR+0x7f102119>
80002230:	41f8 04eb      	lea 4eb <msgInvalidAddress>,%a0
80002234:	6100 019c      	bsrw 800023d2 <IVR+0x7f1023b9>
80002238:	6000 fef8      	braw 80002132 <IVR+0x7f102119>
8000223c:	41f8 04fd      	lea 4fd <msgInvalidValue>,%a0
80002240:	6100 0190      	bsrw 800023d2 <IVR+0x7f1023b9>
80002244:	6000 feec      	braw 80002132 <IVR+0x7f102119>
80002248:	b180           	eorl %d0,%d0
8000224a:	1018           	moveb %a0@+,%d0
8000224c:	b03c 0020      	cmpb #32,%d0
80002250:	67f6           	beqs 80002248 <IVR+0x7f10222f>
80002252:	b03c 0030      	cmpb #48,%d0
80002256:	6d12           	blts 8000226a <IVR+0x7f102251>
80002258:	b03c 0039      	cmpb #57,%d0
8000225c:	6f16           	bles 80002274 <IVR+0x7f10225b>
8000225e:	b03c 0041      	cmpb #65,%d0
80002262:	6d06           	blts 8000226a <IVR+0x7f102251>
80002264:	b03c 0046      	cmpb #70,%d0
80002268:	6f04           	bles 8000226e <IVR+0x7f102255>
8000226a:	7201           	moveq #1,%d1
8000226c:	4e75           	rts
8000226e:	903c 0037      	subb #55,%d0
80002272:	6004           	bras 80002278 <IVR+0x7f10225f>
80002274:	903c 0030      	subb #48,%d0
80002278:	1218           	moveb %a0@+,%d1
8000227a:	b23c 0030      	cmpb #48,%d1
8000227e:	6d12           	blts 80002292 <IVR+0x7f102279>
80002280:	b23c 0039      	cmpb #57,%d1
80002284:	6f18           	bles 8000229e <IVR+0x7f102285>
80002286:	b23c 0041      	cmpb #65,%d1
8000228a:	6d06           	blts 80002292 <IVR+0x7f102279>
8000228c:	b23c 0046      	cmpb #70,%d1
80002290:	6f06           	bles 80002298 <IVR+0x7f10227f>
80002292:	5388           	subql #1,%a0
80002294:	7200           	moveq #0,%d1
80002296:	4e75           	rts
80002298:	923c 0037      	subb #55,%d1
8000229c:	6004           	bras 800022a2 <IVR+0x7f102289>
8000229e:	923c 0030      	subb #48,%d1
800022a2:	e988           	lsll #4,%d0
800022a4:	d001           	addb %d1,%d0
800022a6:	60d0           	bras 80002278 <IVR+0x7f10225f>
800022a8:	48e7 3820      	moveml %d2-%d4/%a2,%sp@-
800022ac:	2448           	moveal %a0,%a2
800022ae:	2400           	movel %d0,%d2
800022b0:	200a           	movel %a2,%d0
800022b2:	6100 0132      	bsrw 800023e6 <IVR+0x7f1023cd>
800022b6:	41f8 0538      	lea 538 <msgColonSpace>,%a0
800022ba:	6100 0116      	bsrw 800023d2 <IVR+0x7f1023b9>
800022be:	7610           	moveq #16,%d3
800022c0:	2803           	movel %d3,%d4
800022c2:	4a82           	tstl %d2
800022c4:	6718           	beqs 800022de <IVR+0x7f1022c5>
800022c6:	4a03           	tstb %d3
800022c8:	673a           	beqs 80002304 <IVR+0x7f1022eb>
800022ca:	101a           	moveb %a2@+,%d0
800022cc:	6100 0140      	bsrw 8000240e <IVR+0x7f1023f5>
800022d0:	103c 0020      	moveb #32,%d0
800022d4:	6100 0164      	bsrw 8000243a <IVR+0x7f102421>
800022d8:	5383           	subql #1,%d3
800022da:	5382           	subql #1,%d2
800022dc:	60e4           	bras 800022c2 <IVR+0x7f1022a9>
800022de:	9803           	subb %d3,%d4
800022e0:	103c 0020      	moveb #32,%d0
800022e4:	4a03           	tstb %d3
800022e6:	671c           	beqs 80002304 <IVR+0x7f1022eb>
800022e8:	103c 0020      	moveb #32,%d0
800022ec:	6100 014c      	bsrw 8000243a <IVR+0x7f102421>
800022f0:	103c 0020      	moveb #32,%d0
800022f4:	6100 0144      	bsrw 8000243a <IVR+0x7f102421>
800022f8:	103c 0020      	moveb #32,%d0
800022fc:	6100 013c      	bsrw 8000243a <IVR+0x7f102421>
80002300:	5303           	subqb #1,%d3
80002302:	60e0           	bras 800022e4 <IVR+0x7f1022cb>
80002304:	95c4           	subal %d4,%a2
80002306:	4a04           	tstb %d4
80002308:	6720           	beqs 8000232a <IVR+0x7f102311>
8000230a:	5304           	subqb #1,%d4
8000230c:	101a           	moveb %a2@+,%d0
8000230e:	b03c 0020      	cmpb #32,%d0
80002312:	6d0c           	blts 80002320 <IVR+0x7f102307>
80002314:	b03c 007e      	cmpb #126,%d0
80002318:	6e06           	bgts 80002320 <IVR+0x7f102307>
8000231a:	6100 011e      	bsrw 8000243a <IVR+0x7f102421>
8000231e:	60e6           	bras 80002306 <IVR+0x7f1022ed>
80002320:	103c 002e      	moveb #46,%d0
80002324:	6100 0114      	bsrw 8000243a <IVR+0x7f102421>
80002328:	60dc           	bras 80002306 <IVR+0x7f1022ed>
8000232a:	41f8 0535      	lea 535 <msgNewline>,%a0
8000232e:	6100 00a2      	bsrw 800023d2 <IVR+0x7f1023b9>
80002332:	4a82           	tstl %d2
80002334:	6f04           	bles 8000233a <IVR+0x7f102321>
80002336:	6000 ff78      	braw 800022b0 <IVR+0x7f102297>
8000233a:	4cdf 041c      	moveml %sp@+,%d2-%d4/%a2
8000233e:	4e75           	rts
80002340:	48e7 2020      	moveml %d2/%a2,%sp@-
80002344:	45f9 00ef ffaa 	lea efffaa <STACK_START>,%a2
8000234a:	b542           	eorw %d2,%d2
8000234c:	6100 00fe      	bsrw 8000244c <IVR+0x7f102433>
80002350:	b03c 0008      	cmpb #8,%d0
80002354:	6722           	beqs 80002378 <IVR+0x7f10235f>
80002356:	b03c 0018      	cmpb #24,%d0
8000235a:	673a           	beqs 80002396 <IVR+0x7f10237d>
8000235c:	b03c 000d      	cmpb #13,%d0
80002360:	6758           	beqs 800023ba <IVR+0x7f1023a1>
80002362:	b03c 000a      	cmpb #10,%d0
80002366:	67e4           	beqs 8000234c <IVR+0x7f102333>
80002368:	b47c 0050      	cmpw #80,%d2
8000236c:	6cde           	bges 8000234c <IVR+0x7f102333>
8000236e:	14c0           	moveb %d0,%a2@+
80002370:	5242           	addqw #1,%d2
80002372:	6100 00c6      	bsrw 8000243a <IVR+0x7f102421>
80002376:	60d4           	bras 8000234c <IVR+0x7f102333>
80002378:	4a42           	tstw %d2
8000237a:	67d0           	beqs 8000234c <IVR+0x7f102333>
8000237c:	6100 00bc      	bsrw 8000243a <IVR+0x7f102421>
80002380:	103c 0020      	moveb #32,%d0
80002384:	6100 00b4      	bsrw 8000243a <IVR+0x7f102421>
80002388:	103c 0008      	moveb #8,%d0
8000238c:	6100 00ac      	bsrw 8000243a <IVR+0x7f102421>
80002390:	538a           	subql #1,%a2
80002392:	5382           	subql #1,%d2
80002394:	60b6           	bras 8000234c <IVR+0x7f102333>
80002396:	4a42           	tstw %d2
80002398:	67b2           	beqs 8000234c <IVR+0x7f102333>
8000239a:	95c2           	subal %d2,%a2
8000239c:	103c 0008      	moveb #8,%d0
800023a0:	6100 0098      	bsrw 8000243a <IVR+0x7f102421>
800023a4:	103c 0020      	moveb #32,%d0
800023a8:	6100 0090      	bsrw 8000243a <IVR+0x7f102421>
800023ac:	103c 0008      	moveb #8,%d0
800023b0:	6100 0088      	bsrw 8000243a <IVR+0x7f102421>
800023b4:	5342           	subqw #1,%d2
800023b6:	66e4           	bnes 8000239c <IVR+0x7f102383>
800023b8:	6092           	bras 8000234c <IVR+0x7f102333>
800023ba:	617e           	bsrs 8000243a <IVR+0x7f102421>
800023bc:	103c 000a      	moveb #10,%d0
800023c0:	6178           	bsrs 8000243a <IVR+0x7f102421>
800023c2:	14bc 0000      	moveb #0,%a2@
800023c6:	204a           	moveal %a2,%a0
800023c8:	4cdf 0404      	moveml %sp@+,%d2/%a2
800023cc:	4e75           	rts
800023ce:	41f8 0535      	lea 535 <msgNewline>,%a0
800023d2:	1018           	moveb %a0@+,%d0
800023d4:	6704           	beqs 800023da <IVR+0x7f1023c1>
800023d6:	6162           	bsrs 8000243a <IVR+0x7f102421>
800023d8:	60f8           	bras 800023d2 <IVR+0x7f1023b9>
800023da:	4e75           	rts
800023dc:	2f02           	movel %d2,%sp@-
800023de:	2400           	movel %d0,%d2
800023e0:	e19a           	roll #8,%d2
800023e2:	e19a           	roll #8,%d2
800023e4:	6018           	bras 800023fe <IVR+0x7f1023e5>
800023e6:	2f02           	movel %d2,%sp@-
800023e8:	2400           	movel %d0,%d2
800023ea:	e19a           	roll #8,%d2
800023ec:	600a           	bras 800023f8 <IVR+0x7f1023df>
800023ee:	2f02           	movel %d2,%sp@-
800023f0:	2400           	movel %d0,%d2
800023f2:	e19a           	roll #8,%d2
800023f4:	2002           	movel %d2,%d0
800023f6:	6116           	bsrs 8000240e <IVR+0x7f1023f5>
800023f8:	e19a           	roll #8,%d2
800023fa:	2002           	movel %d2,%d0
800023fc:	6110           	bsrs 8000240e <IVR+0x7f1023f5>
800023fe:	e19a           	roll #8,%d2
80002400:	2002           	movel %d2,%d0
80002402:	610a           	bsrs 8000240e <IVR+0x7f1023f5>
80002404:	e19a           	roll #8,%d2
80002406:	2002           	movel %d2,%d0
80002408:	6104           	bsrs 8000240e <IVR+0x7f1023f5>
8000240a:	241f           	movel %sp@+,%d2
8000240c:	4e75           	rts
8000240e:	2f02           	movel %d2,%sp@-
80002410:	1400           	moveb %d0,%d2
80002412:	e808           	lsrb #4,%d0
80002414:	d03c 0030      	addb #48,%d0
80002418:	b03c 0039      	cmpb #57,%d0
8000241c:	6f02           	bles 80002420 <IVR+0x7f102407>
8000241e:	5e00           	addqb #7,%d0
80002420:	6118           	bsrs 8000243a <IVR+0x7f102421>
80002422:	0202 000f      	andib #15,%d2
80002426:	d43c 0030      	addb #48,%d2
8000242a:	b43c 0039      	cmpb #57,%d2
8000242e:	6f02           	bles 80002432 <IVR+0x7f102419>
80002430:	5e02           	addqb #7,%d2
80002432:	1002           	moveb %d2,%d0
80002434:	6104           	bsrs 8000243a <IVR+0x7f102421>
80002436:	241f           	movel %sp@+,%d2
80002438:	4e75           	rts
8000243a:	0839 0002 00f0 	btst #2,f00003 <CSRA>
80002440:	0003 
80002442:	67f6           	beqs 8000243a <IVR+0x7f102421>
80002444:	13c0 00f0 0007 	moveb %d0,f00007 <RBA>
8000244a:	4e75           	rts
8000244c:	0839 0000 00f0 	btst #0,f00003 <CSRA>
80002452:	0003 
80002454:	67f6           	beqs 8000244c <IVR+0x7f102433>
80002456:	1039 00f0 0007 	moveb f00007 <RBA>,%d0
8000245c:	4e75           	rts
8000245e:	13fc 0030 00f0 	moveb #48,f00005 <CRA>
80002464:	0005 
80002466:	13fc 0020 00f0 	moveb #32,f00005 <CRA>
8000246c:	0005 
8000246e:	13fc 0010 00f0 	moveb #16,f00005 <CRA>
80002474:	0005 
80002476:	13fc 0080 00f0 	moveb #-128,f00009 <ACR>
8000247c:	0009 
8000247e:	13fc 00bb 00f0 	moveb #-69,f00003 <CSRA>
80002484:	0003 
80002486:	13fc 0093 00f0 	moveb #-109,f00001 <DUART>
8000248c:	0001 
8000248e:	13fc 0007 00f0 	moveb #7,f00001 <DUART>
80002494:	0001 
80002496:	13fc 0005 00f0 	moveb #5,f00005 <CRA>
8000249c:	0005 
8000249e:	4e75           	rts
800024a0:	0d0a 4368      	movepw %a2@(17256),%d6
800024a4:	6172           	bsrs 80002518 <IVR+0x7f1024ff>
800024a6:	7472           	moveq #114,%d2
800024a8:	6575           	bcss 8000251f <IVR+0x7f102506>
800024aa:	7365           	mvsw %a5@-,%d1
800024ac:	2773 2036 3830 	movel %a3@(0000000000000036,%d2:w),%a3@(14384)
800024b2:	3030 2052      	movew %a0@(0000000000000052,%d2:w),%d0
800024b6:	4f4d           	.short 0x4f4d
800024b8:	204d           	moveal %a5,%a0
800024ba:	6f6e           	bles 8000252a <IVR+0x7f102511>
800024bc:	6974           	bvss 80002532 <IVR+0x7f102519>
800024be:	6f72           	bles 80002532 <IVR+0x7f102519>
800024c0:	0d0a 3d3d      	movepw %a2@(15677),%d6
800024c4:	3d3d           	.short 0x3d3d
800024c6:	3d3d           	.short 0x3d3d
800024c8:	3d3d           	.short 0x3d3d
800024ca:	3d3d           	.short 0x3d3d
800024cc:	3d3d           	.short 0x3d3d
800024ce:	3d3d           	.short 0x3d3d
800024d0:	3d3d           	.short 0x3d3d
800024d2:	3d3d           	.short 0x3d3d
800024d4:	3d3d           	.short 0x3d3d
800024d6:	3d3d           	.short 0x3d3d
800024d8:	3d3d           	.short 0x3d3d
800024da:	3d3d           	.short 0x3d3d
800024dc:	3d3d           	.short 0x3d3d
800024de:	3d3d           	.short 0x3d3d
800024e0:	0d0a 0041      	movepw %a2@(65),%d6
800024e4:	7661           	moveq #97,%d3
800024e6:	696c           	bvss 80002554 <IVR+0x7f10253b>
800024e8:	6162           	bsrs 8000254c <IVR+0x7f102533>
800024ea:	6c65           	bges 80002551 <IVR+0x7f102538>
800024ec:	2043           	moveal %d3,%a0
800024ee:	6f6d           	bles 8000255d <IVR+0x7f102544>
800024f0:	6d61           	blts 80002553 <IVR+0x7f10253a>
800024f2:	6e64           	bgts 80002558 <IVR+0x7f10253f>
800024f4:	733a 200d      	mvsb %pc@(80004503 <_end+0x1f73>),%d1
800024f8:	0a20 2845      	eorib #69,%a0@-
800024fc:	2978 616d 696e 	movel 616d <msgColonSpace+0x5c35>,%a4@(26990)
80002502:	6520           	bcss 80002524 <IVR+0x7f10250b>
80002504:	2020           	movel %a0@-,%d0
80002506:	2028 4429      	movel %a0@(17449),%d0
8000250a:	6570           	bcss 8000257c <IVR+0x7f102563>
8000250c:	6f73           	bles 80002581 <IVR+0x7f102568>
8000250e:	6974           	bvss 80002584 <IVR+0x7f10256b>
80002510:	2020           	movel %a0@-,%d0
80002512:	2020           	movel %a0@-,%d0
80002514:	2852           	moveal %a2@,%a4
80002516:	2975 6e20 2020 	movel %a5@(0000000000000020,%d6:l:8),%a4@(8224)
8000251c:	2020           	movel %a0@-,%d0
8000251e:	2848           	moveal %a0,%a4
80002520:	2965 6c70      	movel %a5@-,%a4@(27760)
80002524:	0d0a 003a      	movepw %a2@(58),%d6
80002528:	2000           	movel %d0,%d0
8000252a:	3e20           	movew %a0@-,%d7
8000252c:	0049           	.short 0x0049
8000252e:	6e76           	bgts 800025a6 <_end+0x16>
80002530:	616c           	bsrs 8000259e <_end+0xe>
80002532:	6964           	bvss 80002598 <_end+0x8>
80002534:	2043           	moveal %d3,%a0
80002536:	6f6d           	bles 800025a5 <_end+0x15>
80002538:	6d61           	blts 8000259b <_end+0xb>
8000253a:	6e64           	bgts 800025a0 <_end+0x10>
8000253c:	0d0a 0049      	movepw %a2@(73),%d6
80002540:	6e76           	bgts 800025b8 <_end+0x28>
80002542:	616c           	bsrs 800025b0 <_end+0x20>
80002544:	6964           	bvss 800025aa <_end+0x1a>
80002546:	2041           	moveal %d1,%a0
80002548:	6464           	bccs 800025ae <_end+0x1e>
8000254a:	7265           	moveq #101,%d1
8000254c:	7373 0d0a 0049 	mvsw %a3@(0000000000000000,%d0:l:4)@(0000000000000049),%d1
80002552:	6e76           	bgts 800025ca <_end+0x3a>
80002554:	616c           	bsrs 800025c2 <_end+0x32>
80002556:	6964           	bvss 800025bc <_end+0x2c>
80002558:	2056           	moveal %fp@,%a0
8000255a:	616c           	bsrs 800025c8 <_end+0x38>
8000255c:	7565           	mvsw %a5@-,%d2
8000255e:	0d0a 0043      	movepw %a2@(67),%d6
80002562:	6865           	bvcs 800025c9 <_end+0x39>
80002564:	636b           	blss 800025d1 <_end+0x41>
80002566:	696e           	bvss 800025d6 <_end+0x46>
80002568:	6720           	beqs 8000258a <IVR+0x7f102571>
8000256a:	5241           	addqw #1,%d1
8000256c:	4d2e 2e2e      	chkl %fp@(11822),%d6
80002570:	0d0a 0046      	movepw %a2@(70),%d6
80002574:	6169           	bsrs 800025df <_end+0x4f>
80002576:	6c65           	bges 800025dd <_end+0x4d>
80002578:	6420           	bccs 8000259a <_end+0xa>
8000257a:	6174           	bsrs 800025f0 <_end+0x60>
8000257c:	3a20           	movew %a0@-,%d5
8000257e:	0050 6173      	oriw #24947,%a0@
80002582:	7365           	mvsw %a5@-,%d1
80002584:	642e           	bccs 800025b4 <_end+0x24>
80002586:	0d0a 000d      	movepw %a2@(13),%d6
8000258a:	0a00 3a20      	eorib #32,%d0
	...
